target datalayout = "e-m:e-p270:32:32-p271:32:32-p272:64:64-i64:64-i128:128-f80:128-n8:16:32:64-S128"
target triple = "x86_64-pc-linux-gnu"

%struct.LockViewRecurse_context = type { i32, i8, i32, i32, ptr }
%struct.RelationData = type { %struct.RelFileLocator, ptr, i32, i32, i8, i8, i8, i8, i8, i32, i32, i32, i32, ptr, ptr, i32, %struct.LockInfoData, ptr, ptr, ptr, ptr, ptr, i8, ptr, ptr, ptr, ptr, ptr, ptr, i32, ptr, i8, ptr, ptr, i32, i8, i32, ptr, i8, ptr, ptr, ptr, ptr, ptr, ptr, ptr, i32, ptr, ptr, ptr, ptr, ptr, ptr, ptr, ptr, ptr, ptr, ptr, ptr, ptr, ptr, ptr, ptr, ptr, ptr, ptr, i32, i8, ptr }
%struct.RelFileLocator = type { i32, i32, i32 }
%struct.LockInfoData = type { %struct.LockRelId }
%struct.LockRelId = type { i32, i32 }
%struct.ViewOptions = type { i32, i8, i8, i32 }
%struct.FormData_pg_class = type { i32, %struct.nameData, i32, i32, i32, i32, i32, i32, i32, i32, float, i32, i32, i8, i8, i8, i8, i16, i16, i8, i8, i8, i8, i8, i8, i8, i8, i32, i32, i32 }
%struct.nameData = type { [64 x i8] }

; Function Attrs: nounwind uwtable
define internal void @LockViewRecurse(i32 noundef %0, i32 noundef %1, i1 noundef zeroext %2, ptr noundef %3) #0 {
  %5 = alloca i32, align 4
  %6 = alloca i32, align 4
  %7 = alloca i8, align 1
  %8 = alloca ptr, align 8
  %9 = alloca %struct.LockViewRecurse_context, align 8
  %10 = alloca ptr, align 8
  %11 = alloca ptr, align 8
  store i32 %0, ptr %5, align 4
  store i32 %1, ptr %6, align 4
  %12 = zext i1 %2 to i8
  store i8 %12, ptr %7, align 1
  store ptr %3, ptr %8, align 8
  call void @llvm.lifetime.start.p0(i64 24, ptr %9) #6
  call void @llvm.lifetime.start.p0(i64 8, ptr %10) #6
  call void @llvm.lifetime.start.p0(i64 8, ptr %11) #6
  %13 = load i32, ptr %5, align 4
  %14 = call ptr @table_open(i32 noundef %13, i32 noundef 0)
  store ptr %14, ptr %10, align 8
  %15 = load ptr, ptr %10, align 8
  %16 = call ptr @get_view_query(ptr noundef %15)
  store ptr %16, ptr %11, align 8
  %17 = load i32, ptr %6, align 4
  %18 = getelementptr inbounds nuw %struct.LockViewRecurse_context, ptr %9, i32 0, i32 0
  store i32 %17, ptr %18, align 8
  %19 = load i8, ptr %7, align 1, !range !4, !noundef !5
  %20 = trunc i8 %19 to i1
  %21 = getelementptr inbounds nuw %struct.LockViewRecurse_context, ptr %9, i32 0, i32 1
  %22 = zext i1 %20 to i8
  store i8 %22, ptr %21, align 4
  %23 = load ptr, ptr %10, align 8
  %24 = getelementptr inbounds nuw %struct.RelationData, ptr %23, i32 0, i32 45
  %25 = load ptr, ptr %24, align 8
  %26 = icmp ne ptr %25, null
  br i1 %26, label %27, label %35

27:                                               ; preds = %4
  %28 = load ptr, ptr %10, align 8
  %29 = getelementptr inbounds nuw %struct.RelationData, ptr %28, i32 0, i32 45
  %30 = load ptr, ptr %29, align 8
  %31 = getelementptr inbounds nuw %struct.ViewOptions, ptr %30, i32 0, i32 2
  %32 = load i8, ptr %31, align 1, !range !4, !noundef !5
  %33 = trunc i8 %32 to i1
  %34 = zext i1 %33 to i32
  br label %36

35:                                               ; preds = %4
  br label %36

36:                                               ; preds = %35, %27
  %37 = phi i32 [ %34, %27 ], [ 0, %35 ]
  %38 = icmp ne i32 %37, 0
  br i1 %38, label %39, label %42

39:                                               ; preds = %36
  %40 = call i32 @GetUserId()
  %41 = getelementptr inbounds nuw %struct.LockViewRecurse_context, ptr %9, i32 0, i32 2
  store i32 %40, ptr %41, align 8
  br label %49

42:                                               ; preds = %36
  %43 = load ptr, ptr %10, align 8
  %44 = getelementptr inbounds nuw %struct.RelationData, ptr %43, i32 0, i32 13
  %45 = load ptr, ptr %44, align 8
  %46 = getelementptr inbounds nuw %struct.FormData_pg_class, ptr %45, i32 0, i32 5
  %47 = load i32, ptr %46, align 4
  %48 = getelementptr inbounds nuw %struct.LockViewRecurse_context, ptr %9, i32 0, i32 2
  store i32 %47, ptr %48, align 8
  br label %49

49:                                               ; preds = %42, %39
  %50 = load i32, ptr %5, align 4
  %51 = getelementptr inbounds nuw %struct.LockViewRecurse_context, ptr %9, i32 0, i32 3
  store i32 %50, ptr %51, align 4
  %52 = load ptr, ptr %8, align 8
  %53 = load i32, ptr %5, align 4
  %54 = call ptr @lappend_oid(ptr noundef %52, i32 noundef %53)
  %55 = getelementptr inbounds nuw %struct.LockViewRecurse_context, ptr %9, i32 0, i32 4
  store ptr %54, ptr %55, align 8
  %56 = load ptr, ptr %11, align 8
  %57 = call zeroext i1 @LockViewRecurse_walker(ptr noundef %56, ptr noundef %9)
  %58 = getelementptr inbounds nuw %struct.LockViewRecurse_context, ptr %9, i32 0, i32 4
  %59 = load ptr, ptr %58, align 8
  %60 = call ptr @list_delete_last(ptr noundef %59)
  %61 = getelementptr inbounds nuw %struct.LockViewRecurse_context, ptr %9, i32 0, i32 4
  store ptr %60, ptr %61, align 8
  %62 = load ptr, ptr %10, align 8
  call void @table_close(ptr noundef %62, i32 noundef 0)
  call void @llvm.lifetime.end.p0(i64 8, ptr %11) #6
  call void @llvm.lifetime.end.p0(i64 8, ptr %10) #6
  call void @llvm.lifetime.end.p0(i64 24, ptr %9) #6
  ret void
}