; Function Attrs: nounwind uwtable
define internal fastcc void @LockViewRecurse(i32 noundef %0, i32 noundef %1, i1 noundef zeroext %2, ptr noundef %3) unnamed_addr #0 {
  %5 = alloca %struct.LockViewRecurse_context, align 8
  %6 = zext i1 %2 to i8
  call void @llvm.lifetime.start.p0(i64 24, ptr nonnull %5) #5
  %7 = tail call ptr @table_open(i32 noundef %0, i32 noundef 0) #5
  %8 = tail call ptr @get_view_query(ptr noundef %7) #5
  store i32 %1, ptr %5, align 8
  %9 = getelementptr inbounds nuw i8, ptr %5, i64 4
  store i8 %6, ptr %9, align 4
  %10 = getelementptr inbounds nuw i8, ptr %7, i64 304
  %11 = load ptr, ptr %10, align 8
  %.not = icmp eq ptr %11, null
  br i1 %.not, label %.critedge, label %12

12:                                               ; preds = %4
  %13 = getelementptr inbounds nuw i8, ptr %11, i64 5
  %14 = load i8, ptr %13, align 1, !range !4, !noundef !5
  %15 = icmp eq i8 %14, 0
  br i1 %15, label %.critedge, label %16

16:                                               ; preds = %12
  %17 = tail call i32 @GetUserId() #5
  br label %22

.critedge:                                        ; preds = %4, %12
  %18 = getelementptr inbounds nuw i8, ptr %7, i64 56
  %19 = load ptr, ptr %18, align 8
  %20 = getelementptr inbounds nuw i8, ptr %19, i64 80
  %21 = load i32, ptr %20, align 4
  br label %22

22:                                               ; preds = %.critedge, %16
  %.sink = phi i32 [ %21, %.critedge ], [ %17, %16 ]
  %23 = getelementptr inbounds nuw i8, ptr %5, i64 8
  store i32 %.sink, ptr %23, align 8
  %24 = getelementptr inbounds nuw i8, ptr %5, i64 12
  store i32 %0, ptr %24, align 4
  %25 = tail call ptr @lappend_oid(ptr noundef %3, i32 noundef %0) #5
  %26 = getelementptr inbounds nuw i8, ptr %5, i64 16
  store ptr %25, ptr %26, align 8
  %27 = call zeroext i1 @LockViewRecurse_walker(ptr noundef %8, ptr noundef nonnull %5)
  %28 = load ptr, ptr %26, align 8
  %29 = call ptr @list_delete_last(ptr noundef %28) #5
  store ptr %29, ptr %26, align 8
  call void @table_close(ptr noundef nonnull %7, i32 noundef 0) #5
  call void @llvm.lifetime.end.p0(i64 24, ptr nonnull %5) #5
  ret void
}